; ModuleID = '8/1168.c'
source_filename = "8/1168.c"
target datalayout = "e-m:e-p270:32:32-p271:32:32-p272:64:64-i64:64-f80:128-n8:16:32:64-S128"
target triple = "x86_64-pc-linux-gnu"

@.str = private unnamed_addr constant [3 x i8] c"%d\00", align 1
@.str.1 = private unnamed_addr constant [4 x i8] c" %d\00", align 1
@.str.2 = private unnamed_addr constant [5 x i8] c"%d%d\00", align 1

; Function Attrs: noinline nounwind uwtable
define dso_local void @output(i32 %0, i32 %1, i32* %2, i32* %3) #0 {
  %5 = alloca i32, align 4
  %6 = alloca i32, align 4
  %7 = alloca i32*, align 8
  %8 = alloca i32*, align 8
  %9 = alloca i32, align 4
  store i32 %0, i32* %5, align 4
  store i32 %1, i32* %6, align 4
  store i32* %2, i32** %7, align 8
  store i32* %3, i32** %8, align 8
  %10 = load i32*, i32** %7, align 8
  %11 = getelementptr inbounds i32, i32* %10, i64 0
  %12 = load i32, i32* %11, align 4
  %13 = call i32 (i8*, ...) @printf(i8* getelementptr inbounds ([3 x i8], [3 x i8]* @.str, i64 0, i64 0), i32 %12)
  store i32 1, i32* %9, align 4
  br label %14

14:                                               ; preds = %25, %4
  %15 = load i32, i32* %9, align 4
  %16 = load i32, i32* %5, align 4
  %17 = icmp slt i32 %15, %16
  br i1 %17, label %18, label %28

18:                                               ; preds = %14
  %19 = load i32*, i32** %7, align 8
  %20 = load i32, i32* %9, align 4
  %21 = sext i32 %20 to i64
  %22 = getelementptr inbounds i32, i32* %19, i64 %21
  %23 = load i32, i32* %22, align 4
  %24 = call i32 (i8*, ...) @printf(i8* getelementptr inbounds ([4 x i8], [4 x i8]* @.str.1, i64 0, i64 0), i32 %23)
  br label %25

25:                                               ; preds = %18
  %26 = load i32, i32* %9, align 4
  %27 = add nsw i32 %26, 1
  store i32 %27, i32* %9, align 4
  br label %14

28:                                               ; preds = %14
  store i32 0, i32* %9, align 4
  br label %29

29:                                               ; preds = %40, %28
  %30 = load i32, i32* %9, align 4
  %31 = load i32, i32* %6, align 4
  %32 = icmp slt i32 %30, %31
  br i1 %32, label %33, label %43

33:                                               ; preds = %29
  %34 = load i32*, i32** %8, align 8
  %35 = load i32, i32* %9, align 4
  %36 = sext i32 %35 to i64
  %37 = getelementptr inbounds i32, i32* %34, i64 %36
  %38 = load i32, i32* %37, align 4
  %39 = call i32 (i8*, ...) @printf(i8* getelementptr inbounds ([4 x i8], [4 x i8]* @.str.1, i64 0, i64 0), i32 %38)
  br label %40

40:                                               ; preds = %33
  %41 = load i32, i32* %9, align 4
  %42 = add nsw i32 %41, 1
  store i32 %42, i32* %9, align 4
  br label %29

43:                                               ; preds = %29
  ret void
}

declare dso_local i32 @printf(i8*, ...) #1

; Function Attrs: noinline nounwind uwtable
define dso_local void @swap(i32* %0, i32 %1, i32 %2) #0 {
  %4 = alloca i32*, align 8
  %5 = alloca i32, align 4
  %6 = alloca i32, align 4
  %7 = alloca i32, align 4
  store i32* %0, i32** %4, align 8
  store i32 %1, i32* %5, align 4
  store i32 %2, i32* %6, align 4
  %8 = load i32*, i32** %4, align 8
  %9 = load i32, i32* %5, align 4
  %10 = sext i32 %9 to i64
  %11 = getelementptr inbounds i32, i32* %8, i64 %10
  %12 = load i32, i32* %11, align 4
  store i32 %12, i32* %7, align 4
  %13 = load i32*, i32** %4, align 8
  %14 = load i32, i32* %6, align 4
  %15 = sext i32 %14 to i64
  %16 = getelementptr inbounds i32, i32* %13, i64 %15
  %17 = load i32, i32* %16, align 4
  %18 = load i32*, i32** %4, align 8
  %19 = load i32, i32* %5, align 4
  %20 = sext i32 %19 to i64
  %21 = getelementptr inbounds i32, i32* %18, i64 %20
  store i32 %17, i32* %21, align 4
  %22 = load i32, i32* %7, align 4
  %23 = load i32*, i32** %4, align 8
  %24 = load i32, i32* %6, align 4
  %25 = sext i32 %24 to i64
  %26 = getelementptr inbounds i32, i32* %23, i64 %25
  store i32 %22, i32* %26, align 4
  ret void
}

; Function Attrs: noinline nounwind uwtable
define dso_local void @quicksort(i32* %0, i32 %1, i32 %2) #0 {
  %4 = alloca i32*, align 8
  %5 = alloca i32, align 4
  %6 = alloca i32, align 4
  %7 = alloca i32, align 4
  %8 = alloca i32, align 4
  %9 = alloca i32, align 4
  store i32* %0, i32** %4, align 8
  store i32 %1, i32* %5, align 4
  store i32 %2, i32* %6, align 4
  %10 = load i32, i32* %5, align 4
  store i32 %10, i32* %8, align 4
  %11 = load i32, i32* %6, align 4
  store i32 %11, i32* %9, align 4
  %12 = load i32*, i32** %4, align 8
  %13 = load i32, i32* %8, align 4
  %14 = sext i32 %13 to i64
  %15 = getelementptr inbounds i32, i32* %12, i64 %14
  %16 = load i32, i32* %15, align 4
  store i32 %16, i32* %7, align 4
  br label %17

17:                                               ; preds = %69, %3
  %18 = load i32, i32* %8, align 4
  %19 = load i32, i32* %9, align 4
  %20 = icmp sle i32 %18, %19
  br i1 %20, label %21, label %70

21:                                               ; preds = %17
  br label %22

22:                                               ; preds = %36, %21
  %23 = load i32*, i32** %4, align 8
  %24 = load i32, i32* %8, align 4
  %25 = sext i32 %24 to i64
  %26 = getelementptr inbounds i32, i32* %23, i64 %25
  %27 = load i32, i32* %26, align 4
  %28 = load i32, i32* %7, align 4
  %29 = icmp slt i32 %27, %28
  br i1 %29, label %30, label %34

30:                                               ; preds = %22
  %31 = load i32, i32* %8, align 4
  %32 = load i32, i32* %6, align 4
  %33 = icmp slt i32 %31, %32
  br label %34

34:                                               ; preds = %30, %22
  %35 = phi i1 [ false, %22 ], [ %33, %30 ]
  br i1 %35, label %36, label %39

36:                                               ; preds = %34
  %37 = load i32, i32* %8, align 4
  %38 = add nsw i32 %37, 1
  store i32 %38, i32* %8, align 4
  br label %22

39:                                               ; preds = %34
  br label %40

40:                                               ; preds = %54, %39
  %41 = load i32*, i32** %4, align 8
  %42 = load i32, i32* %9, align 4
  %43 = sext i32 %42 to i64
  %44 = getelementptr inbounds i32, i32* %41, i64 %43
  %45 = load i32, i32* %44, align 4
  %46 = load i32, i32* %7, align 4
  %47 = icmp sgt i32 %45, %46
  br i1 %47, label %48, label %52

48:                                               ; preds = %40
  %49 = load i32, i32* %9, align 4
  %50 = load i32, i32* %5, align 4
  %51 = icmp sgt i32 %49, %50
  br label %52

52:                                               ; preds = %48, %40
  %53 = phi i1 [ false, %40 ], [ %51, %48 ]
  br i1 %53, label %54, label %57

54:                                               ; preds = %52
  %55 = load i32, i32* %9, align 4
  %56 = add nsw i32 %55, -1
  store i32 %56, i32* %9, align 4
  br label %40

57:                                               ; preds = %52
  %58 = load i32, i32* %8, align 4
  %59 = load i32, i32* %9, align 4
  %60 = icmp sle i32 %58, %59
  br i1 %60, label %61, label %69

61:                                               ; preds = %57
  %62 = load i32*, i32** %4, align 8
  %63 = load i32, i32* %8, align 4
  %64 = load i32, i32* %9, align 4
  call void @swap(i32* %62, i32 %63, i32 %64)
  %65 = load i32, i32* %8, align 4
  %66 = add nsw i32 %65, 1
  store i32 %66, i32* %8, align 4
  %67 = load i32, i32* %9, align 4
  %68 = add nsw i32 %67, -1
  store i32 %68, i32* %9, align 4
  br label %69

69:                                               ; preds = %61, %57
  br label %17

70:                                               ; preds = %17
  %71 = load i32, i32* %8, align 4
  %72 = load i32, i32* %6, align 4
  %73 = icmp slt i32 %71, %72
  br i1 %73, label %74, label %78

74:                                               ; preds = %70
  %75 = load i32*, i32** %4, align 8
  %76 = load i32, i32* %8, align 4
  %77 = load i32, i32* %6, align 4
  call void @quicksort(i32* %75, i32 %76, i32 %77)
  br label %78

78:                                               ; preds = %74, %70
  %79 = load i32, i32* %9, align 4
  %80 = load i32, i32* %5, align 4
  %81 = icmp sgt i32 %79, %80
  br i1 %81, label %82, label %86

82:                                               ; preds = %78
  %83 = load i32*, i32** %4, align 8
  %84 = load i32, i32* %5, align 4
  %85 = load i32, i32* %9, align 4
  call void @quicksort(i32* %83, i32 %84, i32 %85)
  br label %86

86:                                               ; preds = %82, %78
  ret void
}

; Function Attrs: noinline nounwind uwtable
define dso_local void @input() #0 {
  %1 = alloca i32, align 4
  %2 = alloca i32, align 4
  %3 = alloca i32, align 4
  %4 = alloca [100 x i32], align 16
  %5 = alloca [100 x i32], align 16
  %6 = call i32 (i8*, ...) @__isoc99_scanf(i8* getelementptr inbounds ([5 x i8], [5 x i8]* @.str.2, i64 0, i64 0), i32* %2, i32* %3)
  store i32 0, i32* %1, align 4
  br label %7

7:                                                ; preds = %16, %0
  %8 = load i32, i32* %1, align 4
  %9 = load i32, i32* %2, align 4
  %10 = icmp slt i32 %8, %9
  br i1 %10, label %11, label %19

11:                                               ; preds = %7
  %12 = load i32, i32* %1, align 4
  %13 = sext i32 %12 to i64
  %14 = getelementptr inbounds [100 x i32], [100 x i32]* %4, i64 0, i64 %13
  %15 = call i32 (i8*, ...) @__isoc99_scanf(i8* getelementptr inbounds ([3 x i8], [3 x i8]* @.str, i64 0, i64 0), i32* %14)
  br label %16

16:                                               ; preds = %11
  %17 = load i32, i32* %1, align 4
  %18 = add nsw i32 %17, 1
  store i32 %18, i32* %1, align 4
  br label %7

19:                                               ; preds = %7
  store i32 0, i32* %1, align 4
  br label %20

20:                                               ; preds = %29, %19
  %21 = load i32, i32* %1, align 4
  %22 = load i32, i32* %3, align 4
  %23 = icmp slt i32 %21, %22
  br i1 %23, label %24, label %32

24:                                               ; preds = %20
  %25 = load i32, i32* %1, align 4
  %26 = sext i32 %25 to i64
  %27 = getelementptr inbounds [100 x i32], [100 x i32]* %5, i64 0, i64 %26
  %28 = call i32 (i8*, ...) @__isoc99_scanf(i8* getelementptr inbounds ([3 x i8], [3 x i8]* @.str, i64 0, i64 0), i32* %27)
  br label %29

29:                                               ; preds = %24
  %30 = load i32, i32* %1, align 4
  %31 = add nsw i32 %30, 1
  store i32 %31, i32* %1, align 4
  br label %20

32:                                               ; preds = %20
  %33 = getelementptr inbounds [100 x i32], [100 x i32]* %4, i64 0, i64 0
  %34 = load i32, i32* %2, align 4
  %35 = sub nsw i32 %34, 1
  call void @quicksort(i32* %33, i32 0, i32 %35)
  %36 = getelementptr inbounds [100 x i32], [100 x i32]* %5, i64 0, i64 0
  %37 = load i32, i32* %3, align 4
  %38 = sub nsw i32 %37, 1
  call void @quicksort(i32* %36, i32 0, i32 %38)
  %39 = load i32, i32* %2, align 4
  %40 = load i32, i32* %3, align 4
  %41 = getelementptr inbounds [100 x i32], [100 x i32]* %4, i64 0, i64 0
  %42 = getelementptr inbounds [100 x i32], [100 x i32]* %5, i64 0, i64 0
  call void @output(i32 %39, i32 %40, i32* %41, i32* %42)
  ret void
}

declare dso_local i32 @__isoc99_scanf(i8*, ...) #1

; Function Attrs: noinline nounwind uwtable
define dso_local i32 @main() #0 {
  call void @input()
  ret i32 0
}


!llvm.module.flags = !{!0}
!llvm.ident = !{!1}

!0 = !{i32 1, !"wchar_size", i32 4}
!1 = !{!"clang version 10.0.0-4ubuntu1 "}
